(lp0
F-0.0008964169124373279
aF-0.0008964169124373279
aF-0.0008138244845671966
aF-0.0006488930180050562
aF-0.00048121973808895884
aF-0.0002530679323606228
aF3.314234404148747e-05
aF0.0002919981963500529
aF0.0008827953302719014
aF0.0015427738568987589
aF0.0022342659197195896
aF0.0029508368668702046
aF0.0036871099554266888
aF0.004438349674313305
aF0.005200344007133102
aF0.005969085660068631
aF0.006740378324587371
aF0.007499727790800761
aF0.007925857715246563
aF0.007940352734797759
aF0.007907877244668618
aF0.007889149526285949
aF0.012658280068666873
aF0.028223995643634862
aF0.043611798418130635
aF0.05897994844468636
aF0.07436316844852968
aF0.08987535218732869
aF0.105380870573516
aF0.1209751387371034
aF0.13628273096376822
aF0.1516553474400377
aF0.16704703904106674
aF0.1826666821508952
aF0.19828960114778843
aF0.21367373015855876
aF0.22898079200651766
aF0.24423460351748807
aF0.2596534374609418
aF0.2750934030953605
aF0.29825017965651346
aF0.3060501473756453
aF0.32132880848645595
aF0.3365761179506534
aF0.35182535246542557
aF0.3672874027681035
aF0.3830772053008824
aF0.39888118638734044
aF0.41469404962891465
aF0.43048438387782256
aF0.44628688023117935
aF0.46209993689217405
aF0.47117999260137355
aF0.47109982531551436
aF0.471041014317715
aF0.4710348961771703
aF0.4710347480474837
aF0.471022683513066
aF0.4835082018594643
aF0.49901659329404874
aF0.514818414922602
aF0.5305432058581351
aF0.5462789577929691
aF0.5622261622403288
aF0.5782578216092024
aF0.5941632679541222
aF0.6099445171976382
aF0.6257097542550241
aF0.6416061226676871
aF0.6576626190900586
aF0.6737157217678765
aF0.6900019084986798
aF0.7063971009286444
aF0.7227834639290517
aF0.7391875504478284
aF0.7555908675481103
aF0.7719843749077339
aF0.7883953156656105
aF0.8048076432606278
aF0.8211498823654748
aF0.8366211924422331
aF0.8507294781380164
aF0.8636047094370616
aF0.8753320301107215
aF0.8858950833150122
aF0.8956773441666569
aF0.9045330174362703
aF0.9092604014619091
aF0.9097107563946961
aF0.910079113559207
aF0.9101720016869289
aF0.9101114907402417
aF0.9100615790222484
aF0.912579296450219
aF0.9187059586597519
aF0.9247546518621622
aF0.9302807122392193
aF0.9355653976379075
aF0.9404624234278784
aF0.9447890518645947
aF0.948681866687027
aF0.9522119597065588
aF0.9553319989200623
aF0.9581855590020003
aF0.9607900255461286
aF0.963158501726069
aF0.9653183885681703
aF0.9672635290414389
aF0.9687174083194708
aF0.9699449195444336
aF0.9710598628789789
aF0.9720678116705267
aF0.9729812469480352
aF0.9737915827656165
aF0.9745042528431282
aF0.9751354973657999
aF0.9756859396010729
aF0.9761787957785073
aF0.9766364950970121
aF0.9770508832377512
aF0.9774271849660521
aF0.9778906788953909
aF0.9800482042339324
aF0.9800482042339324
aF0.9801230054644754
aF0.9801015053649373
aF0.9800159332340836
aF0.9798281826884377
aF0.9795496638309443
aF0.9791807216899489
aF0.978419264652903
aF0.978093079525186
aF0.9773651909688096
aF0.9765604419207856
aF0.9756432249372429
aF0.9746876895758736
aF0.9737190958726388
aF0.9726563248021445
aF0.9713354085096777
aF0.9700621165905152
aF0.9689494598308527
aF0.9681254597211321
aF0.9676502139870153
aF0.96721178880959
aF0.9668660788047722
aF0.9666386275282257
aF0.966522444139568
aF0.966509593892521
aF0.9665909206286809
aF0.9667713750786108
aF0.9670133647407723
aF0.9673077140150202
aF0.9673214529211586
aF0.9674616571689763
aF0.9677482383531538
aF0.9681769468669938
aF0.9687452418843558
aF0.969454092881433
aF0.9702618377723017
aF0.9707619659362401
aF0.9713309767708186
aF0.9718649002721014
aF0.972308390304239
aF0.9727213547510652
aF0.9731399276616574
aF0.9735355557739003
aF0.9739183852026522
aF0.974294577684549
aF0.9746411391292884
aF0.9750400693814287
aF0.9754847432721194
aF0.975830969109625
aF0.9761810791812208
aF0.9765346166569654
aF0.9767899935882054
aF0.9770126821438836
aF0.9771973388251928
aF0.9773222523474494
aF0.9774239795833675
aF0.9774846744055564
aF0.9775172803184761
aF0.9775604682745456
aF0.9775858749728238
aF0.9731066594171289
aF0.9512394607386535
aF0.9286833310526889
aF0.9059443038228973
aF0.8831883077824234
aF0.8604523734672788
aF0.8377114441682748
aF0.8149528059232453
aF0.7922153789268949
aF0.7694751765838662
aF0.7467172423976284
aF0.7239804807422681
aF0.7012412937981024
aF0.678481966469641
aF0.6557431358887627
aF0.6330047860610977
aF0.6102465301257957
aF0.5875080838605481
aF0.5647708351253415
aF0.5420115194962151
aF0.5079054589401101
aF0.4965341809370095
aF0.47377608000335114
aF0.45103567050063104
aF0.42830016918707403
aF0.4055412640412875
aF0.3827984671494463
aF0.3600633824397706
aF0.3373057893780882
aF0.31456329919223275
aF0.30069225637775887
aF0.30070036156240826
aF0.30077310614534136
aF0.30078471765564496
aF0.30080198050933826
aF0.30081685939533664
aF0.2961736898651905
aF0.2743893948525467
aF0.25239639554622784
aF0.23091485679412194
aF0.21186948218911122
aF0.1936056802301698
aF0.17772782879848742
aF0.16309169204998583
aF0.14965989311089853
aF0.13734232739985822
aF0.12605850513958144
aF0.11572502754682619
aF0.10625561538943842
aF0.09756206700166714
aF0.08958352813978179
aF0.08194817963636905
aF0.07493653634508485
aF0.06880061584136904
aF0.06295075734168726
aF0.057809818756596146
aF0.05310493745979024
aF0.04865133629831979
aF0.044700626327773295
aF0.04114120789413312
aF0.037656585816911975
aF0.03460938357341552
aF0.03165654586860289
aF0.028928142908869834
aF0.026416236260743742
aF0.0231104956398132
aF0.0231104956398132
aF0.02313125095803168
aF0.023034856277390624
aF0.022850699257760666
aF0.02270173153307475
aF0.022596258034807692
aF0.02241553986643973
aF0.022089654032097828
aF0.021730537772565065
aF0.021342361937133108
aF0.0209274474602924
aF0.02048909660054745
aF0.020030695392445924
aF0.019663618017369756
aF0.019381911409586318
aF0.018755540067772428
aF0.0180122190187901
aF0.01725580074203049
aF0.01649055460378785
aF0.015720633685937933
aF0.014950656830539843
aF0.014179105922579309
aF0.01348817226650712
aF0.012835954670475058
aF0.011879535986844242
aF0.011633276566358056
aF0.01132921778633788
aF0.011069277967352579
aF0.010883842108634226
aF0.01072682387279731
aF0.0108266609776944
aF0.01101947339191053
aF0.01127728091024896
aF0.011620479332662371
aF0.01223017400867255
aF0.012942093922448352
aF0.01371069188868538
aF0.01455240504772528
aF0.015445504150574984
aF0.016805416781532093
aF0.017242790980683754
aF0.018035559451478243
aF0.01841069421640656
aF0.018417077612315067
aF0.01832051303916177
aF0.01826607766944641
aF0.018264573286169268
aF0.018265208920287188
aF0.018265804085408024
aF0.018266394610969586
aF0.018266980143704946
aF0.018267560748917572
aF0.018268136482854008
aF0.01826870739703363
aF0.018269273539372986
aF0.018269834955012384
aF0.018270391686937497
aF0.018270943776445434
aF0.01827149126349508
aF0.01827203418697045
aF0.018272572584878334
aF0.018273106494497295
aF0.01827363595249003
aF0.018274160994987843
aF0.018274681657655015
aF0.018275197975737068
aF0.018275709984097818
aF0.018276217717247665
aF0.01827672120936551
aF0.01827722049431506
aF0.01827771560565855
aF0.01827820657666696
aF0.018278693440327804
aF0.01827917622935279
aF0.01827965497618257
aF0.018280129712991984
aF0.018280600471693702
aF0.018281067283942114
aF0.01828153018113616
aF0.01828198919442207
aF0.018282465323946236
aF0.018282918480012258
aF0.018283346349858537
aF0.01828379061899904
aF0.01828445880881821
aF0.018284687110818966
aF0.01828509980571337
aF0.018285548585379664
aF0.018285976285926066
aF0.018286379462459583
aF0.018286798165298136
aF0.01828721284671867
aF0.018287643095919848
aF0.01828805246333319
aF0.018288438847039037
aF0.01828884014058864
aF0.018289237570229683
aF0.018289631643928647
aF0.018290022380601755
aF0.01829040980697987
aF0.018290793949460926
aF0.018291174834214968
aF0.018291552487189985
aF0.01829192693411685
aF0.018292298200513937
aF0.018292666311690887
aF0.01829303129275127
aF0.01829341008668996
aF0.018293753004370687
aF0.01829410914302269
aF0.01829446183321923
aF0.018294811522602566
aF0.018295158228156062
aF0.018295501973729686
aF0.018295842782890637
aF0.018296180679011592
aF0.018296515685273747
aF0.018296847824669428
aF0.018297177120005153
aF0.018297503593903607
aF0.01829782726880569
aF0.018298148166972533
aF0.018298466310487357
aF0.018298781721256867
aF0.018299094421013132
aF0.01829940443131487
aF0.018299711773549138
aF0.01818864311051254
aF0.018039459021310725
aF0.01792781775452664
aF0.01785097862517138
aF0.017797937143034844
aF0.017761970207832416
aF0.01773833151359289
aF0.017721394279898352
aF0.017710065497013972
aF0.017703080513748783
aF0.017697473485469427
aF0.01769383673716806
aF0.017692054065700746
aF0.01769000360781786
aF0.017688735288795537
aF0.017688579345957325
aF0.017687690535935847
aF0.017687147406642397
aF0.017687486767318433
aF0.017686983654713627
aF0.017686627835513627
aF0.017687114866525234
aF0.01768678640533198
aF0.017686474314602667
aF0.017686990721350253
aF0.017686743952984144
aF0.01768640492262989
aF0.017686918911230386
aF0.01768675383717156
aF0.017686393002833898
aF0.017515339990354328
aF0.016770205022710802
aF0.01637650899858022
aF0.016414464829351983
aF0.016482654560355706
aF0.01653251107857196
aF0.016555155293671575
aF0.016571652333866677
aF0.016244466761156925
aF0.01575921810205066
aF0.015397398138107631
aF0.015107192336038461
aF0.014924001382661787
aF0.014775625489372102
aF0.014681010929310064
aF0.014613796909204606
aF0.014565421937241538
aF0.014529837331619319
aF0.014503570482458721
aF0.014483529551607607
aF0.01446779776718302
aF0.014455606368950102
aF0.014445586492704776
aF0.014438277390367705
aF0.014432476042007055
aF0.014427821652728913
aF0.014423999078855883
aF0.014420719223219072
aF0.014417791340671171
aF0.014410014688838473
aF0.014407002014304435
aF0.014404348206473497
aF0.014402049058975665
aF0.014400091813632096
aF0.014398448758253534
aF0.014397083028615502
aF0.014395955733691724
a.