(lp0
F-0.005902084211046475
aF-0.005902084211046475
aF-0.005548920122401961
aF-0.0048439694779587265
aF-0.004260099055550419
aF-0.0038492474345051134
aF-0.0035095928172111717
aF-0.0032953669261040434
aF-0.002753575900480877
aF-0.0023639060475245353
aF-0.0021396623832675796
aF-0.0020756028410983105
aF-0.002165770177307111
aF-0.002404445270457527
aF-0.0027862388237620854
aF-0.00330694276665268
aF-0.003964845188337339
aF-0.004749899863605203
aF-0.005250435628007519
aF-0.005389327324071216
aF-0.005403333347283972
aF-0.0053992229971970675
aF-0.0006060358306529279
aF0.015256655151664803
aF0.03106382780802084
aF0.04675514240967302
aF0.06235951889758993
aF0.07813242086597824
aF0.09409835199325142
aF0.11000438641938597
aF0.1256559647833716
aF0.14122661528243027
aF0.15677314354653343
aF0.17250328632017284
aF0.18840464146576408
aF0.2041771667123719
aF0.220012132572631
aF0.23569381852273663
aF0.2513670819157807
aF0.2671871691933434
aF0.29110398326060416
aF0.299094518351545
aF0.31494689487722416
aF0.3306722020230645
aF0.3463542669056511
aF0.36225019065447894
aF0.37854514260504546
aF0.39483698276137846
aF0.4111409780409235
aF0.427436336696992
aF0.4437278389451313
aF0.4600309256370392
aF0.469462462324566
aF0.46948488695361545
aF0.46948622033310095
aF0.4694058071902601
aF0.46936839369833205
aF0.4693587001894762
aF0.48182677975320465
aF0.49737450517544207
aF0.5129349151127809
aF0.528360213318735
aF0.5436765428789536
aF0.5591857357214192
aF0.5746247441433412
aF0.5900392057475903
aF0.6054302341305633
aF0.6204970952737947
aF0.635548474467615
aF0.6508743300910373
aF0.6662936364718945
aF0.6818906857698054
aF0.6975982048660165
aF0.7132966651404259
aF0.7289887192157231
aF0.744686732193609
aF0.7603778298673971
aF0.776062645734887
aF0.7917529349911844
aF0.807379324647157
aF0.8220586138965461
aF0.8353718264166762
aF0.8476673604181739
aF0.8589604691955365
aF0.8692772048693549
aF0.8787295603903043
aF0.8873105363699882
aF0.8915665868196478
aF0.8912820748024044
aF0.8909773649947167
aF0.8907693751260086
aF0.8907168291034847
aF0.8907346124956436
aF0.8937209495346143
aF0.9012584551186433
aF0.908653893335012
aF0.915650949515819
aF0.9221867816796314
aF0.9283418187285483
aF0.9339337561357696
aF0.9390370033247036
aF0.9437342780884849
aF0.9480116894568367
aF0.9519245906451923
aF0.9555243874950243
aF0.9588583186482728
aF0.9618836908780767
aF0.9646815202967293
aF0.966878667075994
aF0.9687290959848056
aF0.970462773876697
aF0.9720851655413727
aF0.9736037250053736
aF0.9750070844146265
aF0.9762988583085486
aF0.9774921722831108
aF0.9785737475312973
aF0.979526828967553
aF0.980356884419018
aF0.9810575769318045
aF0.9816373505921856
aF0.982326634567917
aF0.9823865910644665
aF0.9823865910644665
aF0.9822164997525792
aF0.9818243351364605
aF0.9814110940112906
aF0.9809886426313283
aF0.9805398020128224
aF0.9801073872076064
aF0.9794770449265382
aF0.9792491194769741
aF0.9788086265602508
aF0.9784119106518455
aF0.9781730234538747
aF0.9779609049879484
aF0.977798068778427
aF0.9776675768899143
aF0.9776462085882839
aF0.9777604021729139
aF0.9779601794225948
aF0.9781251176598162
aF0.9782241949721467
aF0.9784818334419958
aF0.9788202497683738
aF0.9791885755646234
aF0.9795843893208903
aF0.9800060247244132
aF0.9804501975250205
aF0.9808103006317525
aF0.9810837578873491
aF0.9815347896130278
aF0.9819041586821654
aF0.9826555924722302
aF0.9834200219071818
aF0.9841930907503222
aF0.9849704829866
aF0.9857474615200116
aF0.9865226369944263
aF0.987183389279131
aF0.9878714654690524
aF0.9883487761971319
aF0.9886466138249119
aF0.988904648946484
aF0.9891044987146471
aF0.9892026459393766
aF0.9892131035272536
aF0.9890551035685121
aF0.9888424267134164
aF0.9884916880884796
aF0.9880718446855513
aF0.9874715951810704
aF0.9867689529284434
aF0.9860095174290782
aF0.9851454838782683
aF0.9842249767333114
aF0.9832931475830412
aF0.9823312629084415
aF0.9816143374806463
aF0.9814689978105929
aF0.9815538946611119
aF0.9817050254110936
aF0.9817840583650422
aF0.9819184036389446
aF0.9820921205944341
aF0.9822542906853107
aF0.9823649753284615
aF0.982442016112018
aF0.9824944795254087
aF0.9825302529553479
aF0.9825543500470689
aF0.9825706594857089
aF0.9825819445259725
aF0.9825894950472239
aF0.9825944956758947
aF0.98259810795642
aF0.9826004926603074
aF0.9826019480373017
aF0.982603150445099
aF0.9826039398447988
aF0.982604287473434
aF0.9826047224158682
aF0.9826050226831992
aF0.9826050418601721
aF0.9826052002499869
aF0.9826053678791081
aF0.9826052517987843
aF0.9826053450318118
aF0.9826054805059428
aF0.9826053221581441
aF0.9826053766664481
aF0.9826055211275285
aF0.9826053525556201
aF0.9831784060848895
aF0.9836719065575401
aF0.983825307649148
aF0.9838274218663047
aF0.9837964940009682
aF0.9837781160067526
aF0.984125635568743
aF0.9846017252554261
aF0.9850163659277191
aF0.9853041526254134
aF0.9855036718866491
aF0.9856379200406192
aF0.9857326101110471
aF0.9857998390929192
aF0.9858487879474638
aF0.9858851811774366
aF0.9859127028690342
aF0.985933798938062
aF0.9859503271366433
aF0.9859631249850161
aF0.9859733200064933
aF0.9859817702017317
aF0.9859886060831009
aF0.9859939613416001
aF0.9859985104841767
aF0.9860021730523355
aF0.986005233369215
aF0.9860097396309094
aF0.9860085423525692
aF0.9860179578495036
aF0.9860206194592874
aF0.986023906525267
aF0.9860262338710657
aF0.9860283049754196
aF0.9860301404735669
aF0.9860317823798003
aF0.9860317823798003
aF0.985448194178284
aF0.9841525875345908
aF0.983016929398113
aF0.982192196259241
aF0.9816364088757018
aF0.9812224382440937
aF0.9808586073728081
aF0.9806030277895715
aF0.9804572259997609
aF0.9804167731162607
aF0.980476168713226
aF0.9806294299540266
aF0.9808216610047271
aF0.9811281419301345
aF0.9811785933446271
aF0.981299401202304
aF0.9815707995940065
aF0.981988299372523
aF0.9825488219924656
aF0.9832527123215307
aF0.9840735168056529
aF0.9847755273295085
aF0.9854495067305383
aF0.9864333313071759
aF0.9866500199101964
aF0.9870492716503094
aF0.9875006580733302
aF0.9879192892995156
aF0.9883753765255063
aF0.9887845105839148
aF0.9891717338433988
aF0.9895893830286788
aF0.9900258613021945
aF0.9904081106837127
aF0.9907376055844422
aF0.9910472231433759
aF0.9913248316391174
aF0.9915588818213136
aF0.991833531171461
aF0.9918939070284263
aF0.9919948485508273
aF0.9920546027062626
aF0.992077344624936
aF0.9921012345599874
aF0.992115322733872
aF0.9921153264456257
aF0.9921153037227498
aF0.9921152815785528
aF0.992115259593249
aF0.9921152377640332
aF0.9921152160852935
aF0.9921151945526827
aF0.9921151731627865
aF0.9921151519128895
aF0.9921151308007978
aF0.9921151098247109
aF0.9921150889831194
aF0.9921150682747346
aF0.992115047698433
aF0.9921150272532117
aF0.9921150069381606
aF0.9921149867524387
aF0.9921149666952548
aF0.9921149467658564
aF0.9921149269635199
aF0.9921149072875425
aF0.992114887737237
aF0.9921148683119283
aF0.9921148490109492
aF0.9921148298336397
aF0.9921148107793438
aF0.9921147918474101
aF0.9921147730371891
aF0.9921147543480333
aF0.9921147357792977
aF0.9921147173303364
aF0.9921146990005077
aF0.9921146807891682
aF0.9921146626956768
aF0.9921146443638993
aF0.9921146264384701
aF0.9921146089951757
aF0.9921145913603329
aF0.9921145649786097
aF0.9921145561042264
aF0.9921145391421983
aF0.9921145216334855
aF0.9921145045010074
aF0.9921144878384333
aF0.9921144709939893
aF0.9921144542663852
aF0.9921144373209155
aF0.9921144207515183
aF0.9921144046277383
aF0.9921143883289815
aF0.9921143721437031
aF0.9921143560648622
aF0.9921143400919057
aF0.992114324224188
aF0.9921143084610715
aF0.9921142928019271
aF0.9921142772461267
aF0.9921142617930473
aF0.9921142464420696
aF0.9921142311925776
aF0.9921142160439574
aF0.9921142007006812
aF0.9921141860003285
aF0.9921141711452821
aF0.992114156394337
aF0.9921141417411855
aF0.9921141271853035
aF0.9921141127260837
aF0.9921140983629234
aF0.9921140840952226
aF0.9921140699223884
aF0.9921140558438251
aF0.9921140418589435
aF0.9921140279671576
aF0.9921140141678814
aF0.9921140004605323
aF0.9921139868445321
aF0.9921139733193023
aF0.9921139598842671
aF0.9921139465388549
aF0.9921139332824939
aF0.9876347714577843
aF0.9656413297871873
aF0.9429112396988962
aF0.9201635551350162
aF0.8974078560768032
aF0.8746767794236165
aF0.851932506905099
aF0.8291729607240698
aF0.8064398945850854
aF0.7836977729383183
aF0.7609383081529828
aF0.7382055941174255
aF0.7154650319583997
aF0.6927038257207375
aF0.6699689964876894
aF0.647229732963447
aF0.624469314391233
aF0.6017347237000955
aF0.5789968214681736
aF0.5562351077849361
aF0.5334982128501691
aF0.5107613370818856
aF0.488000618566602
aF0.46526388501435356
aF0.442528351044479
aF0.41976662844770457
aF0.3970274534318544
aF0.3742927161614582
aF0.35153213283614204
aF0.32879307066488894
aF0.3149021392983686
aF0.3149993267628638
aF0.31506785047059194
aF0.31511477043155506
aF0.31513197586330416
aF0.3151718226587291
aF0.3152082734098194
aF0.31522110145572546
aF0.3109708265671882
aF0.28926676475315305
aF0.26683286184431354
aF0.24510106645318808
aF0.2250029411943454
aF0.2065368976820432
aF0.18949843818639814
aF0.1738644163570192
aF0.15952618783071223
aF0.14638924381520588
aF0.13435790308011528
aF0.1233337652526319
aF0.1132237586726429
aF0.10354239180900059
aF0.09466142039214863
aF0.08688713238031152
aF0.07977990933093024
aF0.07326458083589818
aF0.06728954605579261
aF0.06180723083119008
aF0.05677392919235389
aF0.05224003705121218
aF0.047987134400418435
aF0.04407139595883092
aF0.04046696818865887
aF0.037146891379232154
aF0.03408634375317657
aF0.03126260496432172
aF0.028654849989479408
a.