(lp0
I0
aI0
aI0
aI0
aI0
aI0
aI0
aI0
aI0
aI0
aI0
aI0
aI0
aI0
aI0
aI0
aI0
aI0
aI0
aI0
aI0
aF0.23
aF0.23
aF0.23
aF0.23
aF0.23
aF0.23
aF0.23
aF0.23
aF0.23
aF0.23
aF0.23
aF0.23
aF0.23
aF0.23
aF0.23
aF0.23
aF0.23
aF0.23
aF0.23
aF0.23
aF0.23
aF0.23
aF0.23
aF0.23
aF0.23
aF0.23
aF0.23
aF0.23
aF0.23
aF0.23
aI0
aI0
aI0
aI0
aI0
aF0.23
aF0.23
aF0.23
aF0.23
aF0.23
aF0.23
aF0.23
aF0.23
aF0.23
aF0.23
aF0.23
aF0.23
aF0.23
aF0.23
aF0.23
aF0.23
aF0.23
aF0.23
aF0.23
aF0.23
aF0.23
aF0.23
aF0.2283392510654355
aF0.21027994925054566
aF0.19325551442157202
aF0.17778031249261309
aF0.16357781437779867
aF0.15059190302983974
aF0.13881413456205471
aF0.12797433753561943
aI0
aI0
aI0
aI0
aI0
aI0
aF0.11321581366420067
aF0.1100912086647073
aF0.10232063750540084
aF0.09467746889472117
aF0.0875462534790051
aF0.08082263020489971
aF0.07453157383965955
aF0.06887901217567337
aF0.06374969939560945
aF0.05905673614990392
aF0.05483365246187976
aF0.050972572769959514
aF0.047433336492326145
aF0.04418096559933564
aF0.04122653275810759
aF0.0385253914347081
aF0.03644720663678735
aF0.03469803267385002
aF0.033081516421278004
aF0.03159184834327469
aF0.03021815454404845
aF0.028972008155615445
aF0.027848472740203373
aF0.026830976722041995
aF0.025926145295407283
aF0.02512815794520098
aF0.024419079112264732
aF0.023805577186692455
aF0.023278747345420556
aF0.022643956197133497
aI0
aI0
aI0
aI0
aI0
aI0
aI0
aI0
aI0
aI0
aI0
aI0
aI0
aI0
aI0
aI0
aI0
aI0
aI0
aI0
aI0
aI0
aI0
aI0
aI0
aI0
aI0
aI0
aI0
aI0
aI0
aI0
aI0
aI0
aI0
aI0
aI0
aI0
aI0
aI0
aI0
aI0
aI0
aI0
aI0
aI0
aI0
aI0
aI0
aI0
aI0
aI0
aI0
aI0
aI0
aI0
aI0
aI0
aI0
aI0
aF0.23
aF0.23
aF0.23
aF0.23
aF0.23
aF0.23
aF0.23
aF0.23
aF0.23
aF0.23
aF0.23
aF0.23
aF0.23
aF0.23
aF0.23
aF0.23
aF0.23
aF0.23
aF0.23
aF0.23
aF0.23
aF0.23
aF0.23
aF0.23
aF0.23
aF0.23
aF0.23
aF0.23
aF0.23
aF0.23
aI0
aI0
aI0
aI0
aI0
aI0
aF0.23
aF0.23
aF0.21985689436199163
aF0.20227260777434386
aF0.18510561572171838
aF0.1698918639829033
aF0.1553101233185194
aF0.14263966246436308
aF0.13096697497739349
aF0.12026195517059296
aF0.11045257590406087
aF0.10147456401201477
aF0.09326140470922722
aF0.08574436092238129
aF0.07885334550802142
aF0.0725400028259666
aF0.06651082275788406
aF0.06098814908563264
aF0.05616942290778346
aF0.0515912523348132
aF0.04758429525078044
aF0.04393440838820246
aF0.040498335047710034
aF0.037471327758231955
aF0.03476178582005512
aF0.032134134232007026
aF0.029859839197383817
aF0.027682809523972653
aF0.025700374646494235
aF0.023906143322541443
aI0
aI0
aI0
aI0
aI0
aI0
aI0
aI0
aI0
aI0
aI0
aI0
aI0
aI0
aI0
aI0
aI0
aI0
aI0
aI0
aI0
aI0
aI0
aI0
aI0
aI0
aI0
aI0
aI0
aI0
aI0
aI0
aI0
aI0
aI0
aI0
aI0
aI0
aI0
aI0
aI0
aI0
aI0
aI0
aI0
aI0
aI0
aI0
aI0
aI0
aI0
aI0
aI0
aI0
aI0
aI0
aI0
aI0
aI0
aI0
aI0
aI0
aI0
aI0
aI0
aI0
aI0
aI0
aI0
aI0
aI0
aI0
aI0
aI0
aI0
aI0
aI0
aI0
aI0
aI0
aI0
aI0
aI0
aI0
aI0
aI0
aI0
aI0
aI0
aI0
aI0
aI0
aI0
aI0
aI0
aI0
aI0
aI0
aI0
aI0
aI0
aI0
aI0
aI0
aI0
aI0
aI0
aI0
aI0
aI0
aI0
aI0
aI0
aI0
aI0
aI0
aI0
aI0
aI0
aI0
aI0
aI0
aI0
aI0
aI0
aI0
aI0
aF0.23
aF0.23
aF0.23
aF0.23
aF0.23
aF0.23
aF0.23
aF0.23
aF0.23
aF0.23
aF0.23
aF0.23
aF0.23
aF0.23
aF0.23
aF0.23
aF0.23
aF0.23
aF0.23
aF0.23
aF0.23
aF0.23
aF0.23
aF0.23
aF0.23
aF0.23
aF0.23
aF0.23
aF0.23
aF0.23
aI0
aI0
aI0
aI0
aI0
aI0
aI0
aI0
aF0.23
aF0.23
aF0.23
aF0.21382139242565967
aF0.1964529623689387
aF0.18039787025505727
aF0.16565179714130474
aF0.15205302266141912
aF0.13958200075429877
aF0.12815180028702725
aF0.11768684379194437
aF0.10811075706500345
aF0.09934502392664016
aF0.09131549423905841
aF0.08363727956177483
aF0.07660583572455482
aF0.07046287023288215
aF0.06485987504177691
aF0.05973734961755334
aF0.055054502495306794
aF0.05077379434903755
aF0.04686082709014203
aF0.04335284069636637
aF0.04008252906195611
aF0.03709251731776333
aF0.034362719626749645
aF0.03187228698045002
aF0.02960209892129972
aF0.027534722444367804
aF0.02565424215251402
a.